; Function Attrs: nounwind uwtable
define void @Java_sun_awt_image_DataBufferNative_setElem(ptr noundef %0, ptr nocapture noundef readnone %1, i32 noundef %2, i32 noundef %3, i32 noundef %4, ptr noundef %5) local_unnamed_addr #0 {
  %7 = alloca %struct.SurfaceDataRasInfo, align 8
  %8 = getelementptr inbounds i8, ptr %7, i64 16
  store ptr null, ptr %8, align 8
  %9 = tail call ptr @SurfaceData_GetOps(ptr noundef %0, ptr noundef %5) #2
  %10 = load ptr, ptr %0, align 8
  %11 = getelementptr inbounds i8, ptr %10, i64 1824
  %12 = load ptr, ptr %11, align 8
  %13 = tail call zeroext i8 %12(ptr noundef nonnull %0) #2
  %.not = icmp ne i8 %13, 0
  %14 = icmp eq ptr %9, null
  %or.cond = select i1 %.not, i1 true, i1 %14
  br i1 %or.cond, label %DBN_GetPixelPointer.exit.thread, label %15

15:                                               ; preds = %6
  store i32 %2, ptr %7, align 8
  %16 = getelementptr inbounds i8, ptr %7, i64 4
  store i32 %3, ptr %16, align 4
  %17 = add nsw i32 %2, 1
  %18 = getelementptr inbounds i8, ptr %7, i64 8
  store i32 %17, ptr %18, align 8
  %19 = add nsw i32 %3, 1
  %20 = getelementptr inbounds i8, ptr %7, i64 12
  store i32 %19, ptr %20, align 4
  %21 = load ptr, ptr %9, align 8
  %22 = call i32 %21(ptr noundef nonnull %0, ptr noundef nonnull %9, ptr noundef nonnull %7, i32 noundef 2) #2
  %.not.i = icmp eq i32 %22, 0
  br i1 %.not.i, label %23, label %DBN_GetPixelPointer.exit.thread

23:                                               ; preds = %15
  %24 = getelementptr inbounds i8, ptr %9, i64 8
  %25 = load ptr, ptr %24, align 8
  call void %25(ptr noundef nonnull %0, ptr noundef nonnull %9, ptr noundef nonnull %7) #2
  %26 = load ptr, ptr %8, align 8
  %.not39.i = icmp eq ptr %26, null
  br i1 %.not39.i, label %27, label %DBN_GetPixelPointer.exit

27:                                               ; preds = %23
  %28 = getelementptr inbounds i8, ptr %9, i64 16
  %29 = load ptr, ptr %28, align 8
  %.not40.i = icmp eq ptr %29, null
  br i1 %.not40.i, label %31, label %30

30:                                               ; preds = %27
  call void %29(ptr noundef nonnull %0, ptr noundef nonnull %9, ptr noundef nonnull %7) #2
  br label %31

31:                                               ; preds = %30, %27
  %32 = getelementptr inbounds i8, ptr %9, i64 24
  %33 = load ptr, ptr %32, align 8
  %.not41.i = icmp eq ptr %33, null
  br i1 %.not41.i, label %DBN_GetPixelPointer.exit.thread, label %DBN_GetPixelPointer.exit.thread.sink.split

DBN_GetPixelPointer.exit:                         ; preds = %23
  %34 = getelementptr inbounds i8, ptr %7, i64 28
  %35 = load i32, ptr %34, align 4
  %36 = mul nsw i32 %35, %2
  %37 = getelementptr inbounds i8, ptr %7, i64 32
  %38 = load i32, ptr %37, align 8
  %39 = mul nsw i32 %38, %3
  %40 = add nsw i32 %39, %36
  %41 = sext i32 %40 to i64
  %42 = getelementptr inbounds i8, ptr %26, i64 %41
  switch i32 %35, label %48 [
    i32 4, label %43
    i32 2, label %44
    i32 1, label %46
  ]

43:                                               ; preds = %DBN_GetPixelPointer.exit
  store i32 %4, ptr %42, align 4
  br label %48

44:                                               ; preds = %DBN_GetPixelPointer.exit
  %45 = trunc i32 %4 to i16
  store i16 %45, ptr %42, align 2
  br label %48

46:                                               ; preds = %DBN_GetPixelPointer.exit
  %47 = trunc i32 %4 to i8
  store i8 %47, ptr %42, align 1
  br label %48

48:                                               ; preds = %43, %44, %46, %DBN_GetPixelPointer.exit
  %49 = getelementptr inbounds i8, ptr %9, i64 16
  %50 = load ptr, ptr %49, align 8
  %.not24 = icmp eq ptr %50, null
  br i1 %.not24, label %52, label %51

51:                                               ; preds = %48
  call void %50(ptr noundef nonnull %0, ptr noundef nonnull %9, ptr noundef nonnull %7) #2
  br label %52

52:                                               ; preds = %51, %48
  %53 = getelementptr inbounds i8, ptr %9, i64 24
  %54 = load ptr, ptr %53, align 8
  %.not25 = icmp eq ptr %54, null
  br i1 %.not25, label %DBN_GetPixelPointer.exit.thread, label %DBN_GetPixelPointer.exit.thread.sink.split

DBN_GetPixelPointer.exit.thread.sink.split:       ; preds = %52, %31
  %.sink = phi ptr [ %33, %31 ], [ %54, %52 ]
  call void %.sink(ptr noundef nonnull %0, ptr noundef nonnull %9, ptr noundef nonnull %7) #2
  br label %DBN_GetPixelPointer.exit.thread

DBN_GetPixelPointer.exit.thread:                  ; preds = %DBN_GetPixelPointer.exit.thread.sink.split, %31, %15, %52, %6
  ret void
}